target datalayout = "e-m:e-p270:32:32-p271:32:32-p272:64:64-i64:64-i128:128-f80:128-n8:16:32:64-S128"
target triple = "x86_64-pc-linux-gnu"

%struct.aeron_frame_info_t_stct = type { i32, i32, %struct.aeron_frame_link_t, %struct.aeron_frame_link_t, %struct.aeron_frame_link_t, %struct.aeron_frame_link_t, ptr, ptr, ptr, ptr, i32 }
%struct.aeron_frame_link_t = type { i32, i32 }
%struct.aeron_msg_t_stct = type { ptr, ptr, ptr, i32, i32, i32, i32, i32, i32, i32, i32, i32, i32, i8 }
%struct._wmem_tree_key_t = type { i32, ptr }
%struct.aeron_msg_fragment_t_stct = type { ptr, i32, i32, i32, i32, i32, i8 }

@aeron_frame_info_tree = internal global ptr null, align 8
@.str.269 = private unnamed_addr constant [29 x i8] c"%s:%u: failed assertion \22%s\22\00", align 1
@.str.270 = private unnamed_addr constant [31 x i8] c"epan/dissectors/packet-aeron.c\00", align 1
@.str.271 = private unnamed_addr constant [34 x i8] c"accum_len == (size_t) msg->length\00", align 1
@.str.272 = private unnamed_addr constant [22 x i8] c"last_frame_found == 1\00", align 1
@.str.273 = private unnamed_addr constant [20 x i8] c"finfo != ((void*)0)\00", align 1

; Function Attrs: null_pointer_is_valid sspstrong uwtable
define internal ptr @aeron_frame_info_lookup(ptr noundef %0) #0 {
  %2 = alloca ptr, align 8
  %3 = alloca ptr, align 8
  store ptr %0, ptr %2, align 8
  call void @llvm.lifetime.start.p0(i64 8, ptr %3) #15
  %4 = load ptr, ptr @aeron_frame_info_tree, align 8
  %5 = load ptr, ptr %2, align 8
  %6 = call ptr @wmem_tree_lookup32_array(ptr noundef %4, ptr noundef %5)
  store ptr %6, ptr %3, align 8
  %7 = load ptr, ptr %3, align 8
  call void @llvm.lifetime.end.p0(i64 8, ptr %3) #15
  ret ptr %7
}

; Function Attrs: null_pointer_is_valid sspstrong uwtable
define internal ptr @aeron_frame_info_key_build(i32 noundef %0, i32 noundef %1) #0 {
  %3 = alloca i32, align 4
  %4 = alloca i32, align 4
  %5 = alloca ptr, align 8
  %6 = alloca ptr, align 8
  store i32 %0, ptr %3, align 4
  store i32 %1, ptr %4, align 4
  call void @llvm.lifetime.start.p0(i64 8, ptr %5) #15
  call void @llvm.lifetime.start.p0(i64 8, ptr %6) #15
  %7 = call ptr @wmem_packet_scope()
  %8 = call noalias ptr @wmem_alloc(ptr noundef %7, i64 noundef 32) #16
  store ptr %8, ptr %5, align 8
  %9 = call ptr @wmem_packet_scope()
  %10 = call noalias ptr @wmem_alloc(ptr noundef %9, i64 noundef 8) #16
  store ptr %10, ptr %6, align 8
  %11 = load i32, ptr %3, align 4
  %12 = load ptr, ptr %6, align 8
  %13 = getelementptr i32, ptr %12, i64 0
  store i32 %11, ptr %13, align 4
  %14 = load i32, ptr %4, align 4
  %15 = load ptr, ptr %6, align 8
  %16 = getelementptr i32, ptr %15, i64 1
  store i32 %14, ptr %16, align 4
  %17 = load ptr, ptr %5, align 8
  %18 = getelementptr %struct._wmem_tree_key_t, ptr %17, i64 0
  %19 = getelementptr inbounds nuw %struct._wmem_tree_key_t, ptr %18, i32 0, i32 0
  store i32 2, ptr %19, align 8
  %20 = load ptr, ptr %6, align 8
  %21 = load ptr, ptr %5, align 8
  %22 = getelementptr %struct._wmem_tree_key_t, ptr %21, i64 0
  %23 = getelementptr inbounds nuw %struct._wmem_tree_key_t, ptr %22, i32 0, i32 1
  store ptr %20, ptr %23, align 8
  %24 = load ptr, ptr %5, align 8
  %25 = getelementptr %struct._wmem_tree_key_t, ptr %24, i64 1
  %26 = getelementptr inbounds nuw %struct._wmem_tree_key_t, ptr %25, i32 0, i32 0
  store i32 0, ptr %26, align 8
  %27 = load ptr, ptr %5, align 8
  %28 = getelementptr %struct._wmem_tree_key_t, ptr %27, i64 1
  %29 = getelementptr inbounds nuw %struct._wmem_tree_key_t, ptr %28, i32 0, i32 1
  store ptr null, ptr %29, align 8
  %30 = load ptr, ptr %5, align 8
  call void @llvm.lifetime.end.p0(i64 8, ptr %6) #15
  call void @llvm.lifetime.end.p0(i64 8, ptr %5) #15
  ret ptr %30
}

; Function Attrs: null_pointer_is_valid sspstrong uwtable
define internal ptr @aeron_frame_info_find(i32 noundef %0, i32 noundef %1) #0 {
  %3 = alloca i32, align 4
  %4 = alloca i32, align 4
  %5 = alloca ptr, align 8
  store i32 %0, ptr %3, align 4
  store i32 %1, ptr %4, align 4
  call void @llvm.lifetime.start.p0(i64 8, ptr %5) #15
  %6 = load i32, ptr %3, align 4
  %7 = load i32, ptr %4, align 4
  %8 = call ptr @aeron_frame_info_key_build(i32 noundef %6, i32 noundef %7)
  store ptr %8, ptr %5, align 8
  %9 = load ptr, ptr %5, align 8
  %10 = call ptr @aeron_frame_info_lookup(ptr noundef %9)
  call void @llvm.lifetime.end.p0(i64 8, ptr %5) #15
  ret ptr %10
}

; Function Attrs: alwaysinline nounwind
define internal ptr @memcpy.inline(ptr noalias %0, ptr noalias %1, i64 %2) #8 {
  %4 = alloca ptr, align 8
  %5 = alloca ptr, align 8
  %6 = alloca i64, align 8
  store ptr %0, ptr %4, align 8
  store ptr %1, ptr %5, align 8
  store i64 %2, ptr %6, align 8
  %7 = load ptr, ptr %4, align 8
  %8 = load ptr, ptr %5, align 8
  %9 = load i64, ptr %6, align 8
  %10 = load ptr, ptr %4, align 8
  %11 = call i64 @llvm.objectsize.i64.p0(ptr %10, i1 false, i1 true, i1 true)
  %12 = call ptr @__memcpy_chk(ptr noundef %7, ptr noundef %8, i64 noundef %9, i64 noundef %11) #15
  ret ptr %12
}

; Function Attrs: null_pointer_is_valid sspstrong uwtable
define internal void @aeron_msg_fragment_add(ptr noundef %0, ptr noundef %1) #0 {
  %3 = alloca ptr, align 8
  %4 = alloca ptr, align 8
  %5 = alloca ptr, align 8
  %6 = alloca ptr, align 8
  %7 = alloca i64, align 8
  %8 = alloca i64, align 8
  %9 = alloca i32, align 4
  %10 = alloca i8, align 1
  %11 = alloca ptr, align 8
  %12 = alloca ptr, align 8
  store ptr %0, ptr %3, align 8
  store ptr %1, ptr %4, align 8
  %13 = load ptr, ptr %3, align 8
  %14 = getelementptr inbounds nuw %struct.aeron_msg_t_stct, ptr %13, i32 0, i32 0
  %15 = load ptr, ptr %14, align 8
  %16 = load ptr, ptr %4, align 8
  call void @wmem_list_append(ptr noundef %15, ptr noundef %16)
  %17 = load ptr, ptr %4, align 8
  %18 = getelementptr inbounds nuw %struct.aeron_msg_fragment_t_stct, ptr %17, i32 0, i32 3
  %19 = load i32, ptr %18, align 8
  %20 = load ptr, ptr %3, align 8
  %21 = getelementptr inbounds nuw %struct.aeron_msg_t_stct, ptr %20, i32 0, i32 5
  %22 = load i32, ptr %21, align 8
  %23 = add i32 %22, %19
  store i32 %23, ptr %21, align 8
  %24 = load ptr, ptr %4, align 8
  %25 = getelementptr inbounds nuw %struct.aeron_msg_fragment_t_stct, ptr %24, i32 0, i32 3
  %26 = load i32, ptr %25, align 8
  %27 = load ptr, ptr %3, align 8
  %28 = getelementptr inbounds nuw %struct.aeron_msg_t_stct, ptr %27, i32 0, i32 8
  %29 = load i32, ptr %28, align 4
  %30 = add i32 %29, %26
  store i32 %30, ptr %28, align 4
  %31 = load ptr, ptr %3, align 8
  %32 = getelementptr inbounds nuw %struct.aeron_msg_t_stct, ptr %31, i32 0, i32 7
  %33 = load i32, ptr %32, align 8
  %34 = add i32 %33, 1
  store i32 %34, ptr %32, align 8
  %35 = load ptr, ptr %3, align 8
  %36 = getelementptr inbounds nuw %struct.aeron_msg_t_stct, ptr %35, i32 0, i32 10
  %37 = load i32, ptr %36, align 4
  %38 = load ptr, ptr %4, align 8
  %39 = getelementptr inbounds nuw %struct.aeron_msg_fragment_t_stct, ptr %38, i32 0, i32 4
  %40 = load i32, ptr %39, align 4
  %41 = icmp ugt i32 %37, %40
  br i1 %41, label %42, label %48

42:                                               ; preds = %2
  %43 = load ptr, ptr %4, align 8
  %44 = getelementptr inbounds nuw %struct.aeron_msg_fragment_t_stct, ptr %43, i32 0, i32 4
  %45 = load i32, ptr %44, align 4
  %46 = load ptr, ptr %3, align 8
  %47 = getelementptr inbounds nuw %struct.aeron_msg_t_stct, ptr %46, i32 0, i32 10
  store i32 %45, ptr %47, align 4
  br label %48

48:                                               ; preds = %42, %2
  %49 = load ptr, ptr %3, align 8
  %50 = getelementptr inbounds nuw %struct.aeron_msg_t_stct, ptr %49, i32 0, i32 12
  %51 = load i32, ptr %50, align 4
  %52 = load ptr, ptr %4, align 8
  %53 = getelementptr inbounds nuw %struct.aeron_msg_fragment_t_stct, ptr %52, i32 0, i32 4
  %54 = load i32, ptr %53, align 4
  %55 = icmp ult i32 %51, %54
  br i1 %55, label %56, label %62

56:                                               ; preds = %48
  %57 = load ptr, ptr %4, align 8
  %58 = getelementptr inbounds nuw %struct.aeron_msg_fragment_t_stct, ptr %57, i32 0, i32 4
  %59 = load i32, ptr %58, align 4
  %60 = load ptr, ptr %3, align 8
  %61 = getelementptr inbounds nuw %struct.aeron_msg_t_stct, ptr %60, i32 0, i32 12
  store i32 %59, ptr %61, align 4
  br label %62

62:                                               ; preds = %56, %48
  %63 = load ptr, ptr %4, align 8
  %64 = getelementptr inbounds nuw %struct.aeron_msg_fragment_t_stct, ptr %63, i32 0, i32 2
  %65 = load i32, ptr %64, align 4
  %66 = load ptr, ptr %3, align 8
  %67 = getelementptr inbounds nuw %struct.aeron_msg_t_stct, ptr %66, i32 0, i32 4
  %68 = load i32, ptr %67, align 4
  %69 = add i32 %68, %65
  store i32 %69, ptr %67, align 4
  %70 = load ptr, ptr %4, align 8
  %71 = getelementptr inbounds nuw %struct.aeron_msg_fragment_t_stct, ptr %70, i32 0, i32 6
  %72 = load i8, ptr %71, align 4
  %73 = zext i8 %72 to i32
  %74 = and i32 %73, 64
  %75 = icmp eq i32 %74, 64
  br i1 %75, label %76, label %196

76:                                               ; preds = %62
  call void @llvm.lifetime.start.p0(i64 8, ptr %5) #15
  call void @llvm.lifetime.start.p0(i64 8, ptr %6) #15
  call void @llvm.lifetime.start.p0(i64 8, ptr %7) #15
  store i64 0, ptr %7, align 8
  call void @llvm.lifetime.start.p0(i64 8, ptr %8) #15
  store i64 0, ptr %8, align 8
  call void @llvm.lifetime.start.p0(i64 4, ptr %9) #15
  store i32 0, ptr %9, align 4
  call void @llvm.lifetime.start.p0(i64 1, ptr %10) #15
  store i8 0, ptr %10, align 1
  call void @llvm.lifetime.start.p0(i64 8, ptr %11) #15
  store ptr null, ptr %11, align 8
  %77 = load ptr, ptr %3, align 8
  %78 = getelementptr inbounds nuw %struct.aeron_msg_t_stct, ptr %77, i32 0, i32 13
  store i8 1, ptr %78, align 8
  %79 = load ptr, ptr %4, align 8
  %80 = getelementptr inbounds nuw %struct.aeron_msg_fragment_t_stct, ptr %79, i32 0, i32 4
  %81 = load i32, ptr %80, align 4
  %82 = load ptr, ptr %3, align 8
  %83 = getelementptr inbounds nuw %struct.aeron_msg_t_stct, ptr %82, i32 0, i32 11
  store i32 %81, ptr %83, align 8
  %84 = call ptr @wmem_file_scope()
  %85 = load ptr, ptr %3, align 8
  %86 = getelementptr inbounds nuw %struct.aeron_msg_t_stct, ptr %85, i32 0, i32 5
  %87 = load i32, ptr %86, align 8
  %88 = zext i32 %87 to i64
  %89 = call noalias ptr @wmem_alloc(ptr noundef %84, i64 noundef %88) #16
  store ptr %89, ptr %5, align 8
  %90 = load ptr, ptr %3, align 8
  %91 = getelementptr inbounds nuw %struct.aeron_msg_t_stct, ptr %90, i32 0, i32 0
  %92 = load ptr, ptr %91, align 8
  %93 = call ptr @wmem_list_head(ptr noundef %92)
  store ptr %93, ptr %6, align 8
  br label %94

94:                                               ; preds = %138, %76
  %95 = load ptr, ptr %6, align 8
  %96 = icmp ne ptr %95, null
  br i1 %96, label %97, label %141

97:                                               ; preds = %94
  call void @llvm.lifetime.start.p0(i64 8, ptr %12) #15
  %98 = load ptr, ptr %6, align 8
  %99 = call ptr @wmem_list_frame_data(ptr noundef %98)
  store ptr %99, ptr %12, align 8
  %100 = load ptr, ptr %12, align 8
  %101 = icmp ne ptr %100, null
  br i1 %101, label %102, label %138

102:                                              ; preds = %97
  %103 = load ptr, ptr %12, align 8
  %104 = getelementptr inbounds nuw %struct.aeron_msg_fragment_t_stct, ptr %103, i32 0, i32 4
  %105 = load i32, ptr %104, align 4
  %106 = load ptr, ptr %3, align 8
  %107 = getelementptr inbounds nuw %struct.aeron_msg_t_stct, ptr %106, i32 0, i32 12
  %108 = load i32, ptr %107, align 4
  %109 = icmp eq i32 %105, %108
  br i1 %109, label %110, label %114

110:                                              ; preds = %102
  %111 = load ptr, ptr %12, align 8
  %112 = getelementptr inbounds nuw %struct.aeron_msg_fragment_t_stct, ptr %111, i32 0, i32 5
  %113 = load i32, ptr %112, align 8
  store i32 %113, ptr %9, align 4
  store i8 1, ptr %10, align 1
  br label %114

114:                                              ; preds = %110, %102
  %115 = load ptr, ptr %5, align 8
  %116 = load i64, ptr %7, align 8
  %117 = getelementptr i8, ptr %115, i64 %116
  %118 = load ptr, ptr %12, align 8
  %119 = getelementptr inbounds nuw %struct.aeron_msg_fragment_t_stct, ptr %118, i32 0, i32 0
  %120 = load ptr, ptr %119, align 8
  %121 = load ptr, ptr %12, align 8
  %122 = getelementptr inbounds nuw %struct.aeron_msg_fragment_t_stct, ptr %121, i32 0, i32 3
  %123 = load i32, ptr %122, align 8
  %124 = zext i32 %123 to i64
  %125 = call ptr @memcpy.inline(ptr noundef %117, ptr noundef %120, i64 noundef %124) #15
  %126 = load ptr, ptr %12, align 8
  %127 = getelementptr inbounds nuw %struct.aeron_msg_fragment_t_stct, ptr %126, i32 0, i32 3
  %128 = load i32, ptr %127, align 8
  %129 = zext i32 %128 to i64
  %130 = load i64, ptr %7, align 8
  %131 = add i64 %130, %129
  store i64 %131, ptr %7, align 8
  %132 = load ptr, ptr %12, align 8
  %133 = getelementptr inbounds nuw %struct.aeron_msg_fragment_t_stct, ptr %132, i32 0, i32 3
  %134 = load i32, ptr %133, align 8
  %135 = zext i32 %134 to i64
  %136 = load i64, ptr %8, align 8
  %137 = add i64 %136, %135
  store i64 %137, ptr %8, align 8
  br label %138

138:                                              ; preds = %114, %97
  %139 = load ptr, ptr %6, align 8
  %140 = call ptr @wmem_list_frame_next(ptr noundef %139)
  store ptr %140, ptr %6, align 8
  call void @llvm.lifetime.end.p0(i64 8, ptr %12) #15
  br label %94, !llvm.loop !18

141:                                              ; preds = %94
  %142 = load i64, ptr %8, align 8
  %143 = load ptr, ptr %3, align 8
  %144 = getelementptr inbounds nuw %struct.aeron_msg_t_stct, ptr %143, i32 0, i32 5
  %145 = load i32, ptr %144, align 8
  %146 = zext i32 %145 to i64
  %147 = icmp eq i64 %142, %146
  br i1 %147, label %148, label %149

148:                                              ; preds = %141
  br label %151

149:                                              ; preds = %141
  call void (ptr, ...) @proto_report_dissector_bug(ptr noundef @.str.269, ptr noundef @.str.270, i32 noundef 1988, ptr noundef @.str.271) #19
  unreachable

150:                                              ; No predecessors!
  br label %151

151:                                              ; preds = %150, %148
  %152 = load i8, ptr %10, align 1, !range !6, !noundef !7
  %153 = trunc i8 %152 to i1
  %154 = zext i1 %153 to i32
  %155 = icmp eq i32 %154, 1
  br i1 %155, label %156, label %157

156:                                              ; preds = %151
  br label %159

157:                                              ; preds = %151
  call void (ptr, ...) @proto_report_dissector_bug(ptr noundef @.str.269, ptr noundef @.str.270, i32 noundef 1989, ptr noundef @.str.272) #19
  unreachable

158:                                              ; No predecessors!
  br label %159

159:                                              ; preds = %158, %156
  %160 = load i8, ptr %10, align 1, !range !6, !noundef !7
  %161 = trunc i8 %160 to i1
  br i1 %161, label %162, label %168

162:                                              ; preds = %159
  %163 = load ptr, ptr %3, align 8
  %164 = getelementptr inbounds nuw %struct.aeron_msg_t_stct, ptr %163, i32 0, i32 12
  %165 = load i32, ptr %164, align 4
  %166 = load i32, ptr %9, align 4
  %167 = call ptr @aeron_frame_info_find(i32 noundef %165, i32 noundef %166)
  store ptr %167, ptr %11, align 8
  br label %168

168:                                              ; preds = %162, %159
  %169 = load ptr, ptr %5, align 8
  %170 = load ptr, ptr %3, align 8
  %171 = getelementptr inbounds nuw %struct.aeron_msg_t_stct, ptr %170, i32 0, i32 5
  %172 = load i32, ptr %171, align 8
  %173 = load ptr, ptr %3, align 8
  %174 = getelementptr inbounds nuw %struct.aeron_msg_t_stct, ptr %173, i32 0, i32 5
  %175 = load i32, ptr %174, align 8
  %176 = call ptr @tvb_new_real_data(ptr noundef %169, i32 noundef %172, i32 noundef %175)
  %177 = load ptr, ptr %3, align 8
  %178 = getelementptr inbounds nuw %struct.aeron_msg_t_stct, ptr %177, i32 0, i32 2
  store ptr %176, ptr %178, align 8
  %179 = load ptr, ptr %11, align 8
  %180 = icmp ne ptr %179, null
  br i1 %180, label %181, label %182

181:                                              ; preds = %168
  br label %184

182:                                              ; preds = %168
  call void (ptr, ...) @proto_report_dissector_bug(ptr noundef @.str.269, ptr noundef @.str.270, i32 noundef 1995, ptr noundef @.str.273) #19
  unreachable

183:                                              ; No predecessors!
  br label %184

184:                                              ; preds = %183, %181
  %185 = load ptr, ptr %11, align 8
  %186 = icmp ne ptr %185, null
  br i1 %186, label %187, label %195

187:                                              ; preds = %184
  %188 = load ptr, ptr %11, align 8
  %189 = getelementptr inbounds nuw %struct.aeron_frame_info_t_stct, ptr %188, i32 0, i32 10
  %190 = load i32, ptr %189, align 8
  %191 = or i32 %190, 4
  store i32 %191, ptr %189, align 8
  %192 = load ptr, ptr %3, align 8
  %193 = load ptr, ptr %11, align 8
  %194 = getelementptr inbounds nuw %struct.aeron_frame_info_t_stct, ptr %193, i32 0, i32 8
  store ptr %192, ptr %194, align 8
  br label %195

195:                                              ; preds = %187, %184
  call void @llvm.lifetime.end.p0(i64 8, ptr %11) #15
  call void @llvm.lifetime.end.p0(i64 1, ptr %10) #15
  call void @llvm.lifetime.end.p0(i64 4, ptr %9) #15
  call void @llvm.lifetime.end.p0(i64 8, ptr %8) #15
  call void @llvm.lifetime.end.p0(i64 8, ptr %7) #15
  call void @llvm.lifetime.end.p0(i64 8, ptr %6) #15
  call void @llvm.lifetime.end.p0(i64 8, ptr %5) #15
  br label %196

196:                                              ; preds = %195, %62
  ret void
}