; Function Attrs: null_pointer_is_valid sspstrong uwtable
define internal fastcc void @aeron_msg_fragment_add(ptr noundef %0, ptr noundef %1) unnamed_addr #0 {
  %3 = load ptr, ptr %0, align 8
  tail call void @wmem_list_append(ptr noundef %3, ptr noundef %1)
  %4 = getelementptr inbounds nuw i8, ptr %1, i64 16
  %5 = load i32, ptr %4, align 8
  %6 = getelementptr inbounds nuw i8, ptr %0, i64 32
  %7 = load i32, ptr %6, align 8
  %8 = add i32 %7, %5
  store i32 %8, ptr %6, align 8
  %9 = load i32, ptr %4, align 8
  %10 = getelementptr inbounds nuw i8, ptr %0, i64 44
  %11 = load i32, ptr %10, align 4
  %12 = add i32 %11, %9
  store i32 %12, ptr %10, align 4
  %13 = getelementptr inbounds nuw i8, ptr %0, i64 40
  %14 = load i32, ptr %13, align 8
  %15 = add i32 %14, 1
  store i32 %15, ptr %13, align 8
  %16 = getelementptr inbounds nuw i8, ptr %0, i64 52
  %17 = load i32, ptr %16, align 4
  %18 = getelementptr inbounds nuw i8, ptr %1, i64 20
  %19 = load i32, ptr %18, align 4
  %20 = icmp ugt i32 %17, %19
  br i1 %20, label %21, label %22

21:                                               ; preds = %2
  store i32 %19, ptr %16, align 4
  %.pre = load i32, ptr %18, align 4
  br label %22

22:                                               ; preds = %21, %2
  %23 = phi i32 [ %.pre, %21 ], [ %19, %2 ]
  %24 = getelementptr inbounds nuw i8, ptr %0, i64 60
  %25 = load i32, ptr %24, align 4
  %26 = icmp ult i32 %25, %23
  br i1 %26, label %27, label %28

27:                                               ; preds = %22
  store i32 %23, ptr %24, align 4
  br label %28

28:                                               ; preds = %27, %22
  %29 = getelementptr inbounds nuw i8, ptr %1, i64 12
  %30 = load i32, ptr %29, align 4
  %31 = getelementptr inbounds nuw i8, ptr %0, i64 28
  %32 = load i32, ptr %31, align 4
  %33 = add i32 %32, %30
  store i32 %33, ptr %31, align 4
  %34 = getelementptr inbounds nuw i8, ptr %1, i64 28
  %35 = load i8, ptr %34, align 4
  %36 = and i8 %35, 64
  %.not = icmp eq i8 %36, 0
  br i1 %.not, label %98, label %37

37:                                               ; preds = %28
  %38 = getelementptr inbounds nuw i8, ptr %0, i64 64
  store i8 1, ptr %38, align 8
  %39 = load i32, ptr %18, align 4
  %40 = getelementptr inbounds nuw i8, ptr %0, i64 56
  store i32 %39, ptr %40, align 8
  %41 = tail call ptr @wmem_file_scope()
  %42 = load i32, ptr %6, align 8
  %43 = zext i32 %42 to i64
  %44 = tail call noalias ptr @wmem_alloc(ptr noundef %41, i64 noundef %43) #13
  %45 = load ptr, ptr %0, align 8
  %46 = tail call ptr @wmem_list_head(ptr noundef %45)
  %.not6467 = icmp eq ptr %46, null
  br i1 %.not6467, label %._crit_edge.thread, label %.lr.ph

.lr.ph:                                           ; preds = %37, %68
  %.072 = phi ptr [ %69, %68 ], [ %46, %37 ]
  %.05371 = phi i1 [ %.1, %68 ], [ false, %37 ]
  %.05470 = phi i32 [ %.155, %68 ], [ 0, %37 ]
  %.05769 = phi i64 [ %.158, %68 ], [ 0, %37 ]
  %.05968 = phi i64 [ %.160, %68 ], [ 0, %37 ]
  %47 = tail call ptr @wmem_list_frame_data(ptr noundef nonnull %.072)
  %.not66 = icmp eq ptr %47, null
  br i1 %.not66, label %68, label %48

48:                                               ; preds = %.lr.ph
  %49 = getelementptr inbounds nuw i8, ptr %47, i64 20
  %50 = load i32, ptr %49, align 4
  %51 = load i32, ptr %24, align 4
  %52 = icmp eq i32 %50, %51
  br i1 %52, label %53, label %56

53:                                               ; preds = %48
  %54 = getelementptr inbounds nuw i8, ptr %47, i64 24
  %55 = load i32, ptr %54, align 8
  br label %56

56:                                               ; preds = %53, %48
  %.256 = phi i32 [ %55, %53 ], [ %.05470, %48 ]
  %.2 = phi i1 [ true, %53 ], [ %.05371, %48 ]
  %57 = getelementptr i8, ptr %44, i64 %.05968
  %58 = load ptr, ptr %47, align 8
  %59 = getelementptr inbounds nuw i8, ptr %47, i64 16
  %60 = load i32, ptr %59, align 8
  %61 = zext i32 %60 to i64
  %62 = tail call i64 @llvm.usub.sat.i64(i64 %43, i64 %.05968)
  %63 = tail call ptr @__memcpy_chk(ptr noundef %57, ptr noundef %58, i64 noundef range(i64 0, 4294967296) %61, i64 noundef %62) #14, !alias.scope !16
  %64 = load i32, ptr %59, align 8
  %65 = zext i32 %64 to i64
  %66 = add i64 %.05968, %65
  %67 = add i64 %.05769, %65
  br label %68

68:                                               ; preds = %56, %.lr.ph
  %.160 = phi i64 [ %66, %56 ], [ %.05968, %.lr.ph ]
  %.158 = phi i64 [ %67, %56 ], [ %.05769, %.lr.ph ]
  %.155 = phi i32 [ %.256, %56 ], [ %.05470, %.lr.ph ]
  %.1 = phi i1 [ %.2, %56 ], [ %.05371, %.lr.ph ]
  %69 = tail call ptr @wmem_list_frame_next(ptr noundef nonnull %.072)
  %.not64 = icmp eq ptr %69, null
  br i1 %.not64, label %._crit_edge, label %.lr.ph, !llvm.loop !20

._crit_edge:                                      ; preds = %68
  %70 = load i32, ptr %6, align 8
  %71 = zext i32 %70 to i64
  %72 = icmp eq i64 %.158, %71
  br i1 %72, label %76, label %75

._crit_edge.thread:                               ; preds = %37
  %73 = load i32, ptr %6, align 8
  %74 = icmp eq i32 %73, 0
  br i1 %74, label %.thread, label %75

75:                                               ; preds = %._crit_edge.thread, %._crit_edge
  tail call void (ptr, ...) @proto_report_dissector_bug(ptr noundef nonnull @.str.269, ptr noundef nonnull @.str.270, i32 noundef 1988, ptr noundef nonnull @.str.271) #16
  unreachable

76:                                               ; preds = %._crit_edge
  br i1 %.1, label %77, label %.thread

.thread:                                          ; preds = %._crit_edge.thread, %76
  tail call void (ptr, ...) @proto_report_dissector_bug(ptr noundef nonnull @.str.269, ptr noundef nonnull @.str.270, i32 noundef 1989, ptr noundef nonnull @.str.272) #16
  unreachable

77:                                               ; preds = %76
  %78 = load i32, ptr %24, align 4
  %79 = tail call ptr @wmem_packet_scope()
  %80 = tail call noalias dereferenceable_or_null(32) ptr @wmem_alloc(ptr noundef %79, i64 noundef 32) #13
  %81 = tail call ptr @wmem_packet_scope()
  %82 = tail call noalias dereferenceable_or_null(8) ptr @wmem_alloc(ptr noundef %81, i64 noundef 8) #13
  store i32 %78, ptr %82, align 4
  %83 = getelementptr i8, ptr %82, i64 4
  store i32 %.155, ptr %83, align 4
  store i32 2, ptr %80, align 8
  %84 = getelementptr inbounds nuw i8, ptr %80, i64 8
  store ptr %82, ptr %84, align 8
  %85 = getelementptr i8, ptr %80, i64 16
  store i32 0, ptr %85, align 8
  %86 = getelementptr i8, ptr %80, i64 24
  store ptr null, ptr %86, align 8
  %87 = load ptr, ptr @aeron_frame_info_tree, align 8
  %88 = tail call ptr @wmem_tree_lookup32_array(ptr noundef %87, ptr noundef %80)
  %89 = load i32, ptr %6, align 8
  %90 = tail call ptr @tvb_new_real_data(ptr noundef %44, i32 noundef %89, i32 noundef %89)
  %91 = getelementptr inbounds nuw i8, ptr %0, i64 16
  store ptr %90, ptr %91, align 8
  %.not65 = icmp eq ptr %88, null
  br i1 %.not65, label %92, label %93

92:                                               ; preds = %77
  tail call void (ptr, ...) @proto_report_dissector_bug(ptr noundef nonnull @.str.269, ptr noundef nonnull @.str.270, i32 noundef 1995, ptr noundef nonnull @.str.273) #16
  unreachable

93:                                               ; preds = %77
  %94 = getelementptr inbounds nuw i8, ptr %88, i64 72
  %95 = load i32, ptr %94, align 8
  %96 = or i32 %95, 4
  store i32 %96, ptr %94, align 8
  %97 = getelementptr inbounds nuw i8, ptr %88, i64 56
  store ptr %0, ptr %97, align 8
  br label %98

98:                                               ; preds = %93, %28
  ret void
}